; Function Attrs: mustprogress nounwind uwtable
define hidden { i32, ptr } @_ZN4llvh3sys2fs16create_hard_linkERKNS_5TwineES4_(ptr noundef nonnull align 8 dereferenceable(18) %to, ptr noundef nonnull align 8 dereferenceable(18) %from) local_unnamed_addr #0 {
entry:
  %from_storage = alloca %"class.llvh::SmallString.11", align 8
  %to_storage = alloca %"class.llvh::SmallString.11", align 8
  %add.ptr.i.i.i.i.i.i = getelementptr inbounds i8, ptr %from_storage, i64 16
  store ptr %add.ptr.i.i.i.i.i.i, ptr %from_storage, align 8
  %Size.i.i.i.i.i.i = getelementptr inbounds i8, ptr %from_storage, i64 8
  store i32 0, ptr %Size.i.i.i.i.i.i, align 8
  %Capacity2.i.i.i.i.i.i = getelementptr inbounds i8, ptr %from_storage, i64 12
  store i32 128, ptr %Capacity2.i.i.i.i.i.i, align 4
  %add.ptr.i.i.i.i.i.i1 = getelementptr inbounds i8, ptr %to_storage, i64 16
  store ptr %add.ptr.i.i.i.i.i.i1, ptr %to_storage, align 8
  %Size.i.i.i.i.i.i2 = getelementptr inbounds i8, ptr %to_storage, i64 8
  store i32 0, ptr %Size.i.i.i.i.i.i2, align 8
  %Capacity2.i.i.i.i.i.i3 = getelementptr inbounds i8, ptr %to_storage, i64 12
  store i32 128, ptr %Capacity2.i.i.i.i.i.i3, align 4
  %call = call { ptr, i64 } @_ZNK4llvh5Twine25toNullTerminatedStringRefERNS_15SmallVectorImplIcEE(ptr noundef nonnull align 8 dereferenceable(18) %from, ptr noundef nonnull align 8 dereferenceable(16) %from_storage) #29
  %0 = extractvalue { ptr, i64 } %call, 0
  %call1 = call { ptr, i64 } @_ZNK4llvh5Twine25toNullTerminatedStringRefERNS_15SmallVectorImplIcEE(ptr noundef nonnull align 8 dereferenceable(18) %to, ptr noundef nonnull align 8 dereferenceable(16) %to_storage) #29
  %1 = extractvalue { ptr, i64 } %call1, 0
  %call4 = call i32 @link(ptr noundef %1, ptr noundef %0) #29
  %cmp = icmp eq i32 %call4, -1
  br i1 %cmp, label %if.then, label %if.end

if.then:                                          ; preds = %entry
  %call5 = tail call ptr @__errno_location() #30
  %2 = load i32, ptr %call5, align 4
  %call6 = tail call noundef nonnull align 8 dereferenceable(8) ptr @_ZNSt3_V216generic_categoryEv() #30
  br label %cleanup

if.end:                                           ; preds = %entry
  %call.i = tail call noundef nonnull align 8 dereferenceable(8) ptr @_ZNSt3_V215system_categoryEv() #30
  br label %cleanup

cleanup:                                          ; preds = %if.end, %if.then
  %retval.sroa.0.0 = phi i32 [ %2, %if.then ], [ 0, %if.end ]
  %retval.sroa.3.0 = phi ptr [ %call6, %if.then ], [ %call.i, %if.end ]
  %3 = load ptr, ptr %to_storage, align 8
  %cmp.i.i.i.i = icmp eq ptr %3, %add.ptr.i.i.i.i.i.i1
  br i1 %cmp.i.i.i.i, label %_ZN4llvh11SmallStringILj128EED2Ev.exit, label %if.then.i.i.i

if.then.i.i.i:                                    ; preds = %cleanup
  call void @free(ptr noundef %3) #29
  br label %_ZN4llvh11SmallStringILj128EED2Ev.exit

_ZN4llvh11SmallStringILj128EED2Ev.exit:           ; preds = %cleanup, %if.then.i.i.i
  %4 = load ptr, ptr %from_storage, align 8
  %cmp.i.i.i.i6 = icmp eq ptr %4, %add.ptr.i.i.i.i.i.i
  br i1 %cmp.i.i.i.i6, label %_ZN4llvh11SmallStringILj128EED2Ev.exit8, label %if.then.i.i.i7

if.then.i.i.i7:                                   ; preds = %_ZN4llvh11SmallStringILj128EED2Ev.exit
  call void @free(ptr noundef %4) #29
  br label %_ZN4llvh11SmallStringILj128EED2Ev.exit8

_ZN4llvh11SmallStringILj128EED2Ev.exit8:          ; preds = %_ZN4llvh11SmallStringILj128EED2Ev.exit, %if.then.i.i.i7
  %.fca.0.insert = insertvalue { i32, ptr } poison, i32 %retval.sroa.0.0, 0
  %.fca.1.insert = insertvalue { i32, ptr } %.fca.0.insert, ptr %retval.sroa.3.0, 1
  ret { i32, ptr } %.fca.1.insert
}